; Function Attrs: mustprogress uwtable
define hidden void @_ZNK4cvc58internal11NodeBuilder11getOperatorEv(ptr noalias nocapture writeonly sret(%"class.cvc5::internal::NodeTemplate") align 8 %agg.result, ptr nocapture noundef nonnull readonly align 8 dereferenceable(116) %this) local_unnamed_addr #3 align 2 {
entry:
  %d_nv = getelementptr inbounds i8, ptr %this, i64 96
  %0 = load ptr, ptr %d_nv, align 8
  %d_children.i = getelementptr inbounds i8, ptr %0, i64 16
  %1 = load ptr, ptr %d_children.i, align 8
  store ptr %1, ptr %agg.result, align 8
  %bf.load.i.i = load i64, ptr %1, align 8
  %bf.lshr.i.i = lshr i64 %bf.load.i.i, 40
  %2 = trunc i64 %bf.lshr.i.i to i32
  %bf.cast.i.i = and i32 %2, 1048575
  %cmp.i.i = icmp ult i32 %bf.cast.i.i, 1048574
  br i1 %cmp.i.i, label %if.then.i.i, label %if.else.i.i

if.then.i.i:                                      ; preds = %entry
  %bf.value.i.i = add i64 %bf.load.i.i, 1099511627776
  %bf.shl.i.i = and i64 %bf.value.i.i, 1152920405095219200
  %bf.clear7.i.i = and i64 %bf.load.i.i, -1152920405095219201
  %bf.set.i.i = or disjoint i64 %bf.shl.i.i, %bf.clear7.i.i
  store i64 %bf.set.i.i, ptr %1, align 8
  br label %_ZN4cvc58internal12NodeTemplateILb1EEC2EPKNS0_4expr9NodeValueE.exit

if.else.i.i:                                      ; preds = %entry
  %cmp12.i.i = icmp eq i32 %bf.cast.i.i, 1048574
  br i1 %cmp12.i.i, label %if.then13.i.i, label %_ZN4cvc58internal12NodeTemplateILb1EEC2EPKNS0_4expr9NodeValueE.exit

if.then13.i.i:                                    ; preds = %if.else.i.i
  %bf.set23.i.i = or i64 %bf.load.i.i, 1152920405095219200
  store i64 %bf.set23.i.i, ptr %1, align 8
  tail call void @_ZN4cvc58internal4expr9NodeValue20markRefCountMaxedOutEv(ptr noundef nonnull align 8 dereferenceable(16) %1)
  br label %_ZN4cvc58internal12NodeTemplateILb1EEC2EPKNS0_4expr9NodeValueE.exit

_ZN4cvc58internal12NodeTemplateILb1EEC2EPKNS0_4expr9NodeValueE.exit: ; preds = %if.then.i.i, %if.else.i.i, %if.then13.i.i
  ret void
}